target datalayout = "e-m:e-p270:32:32-p271:32:32-p272:64:64-i64:64-i128:128-f80:128-n8:16:32:64-S128"
target triple = "x86_64-pc-linux-gnu"

%"class.arrow_vendored::double_conversion::Vector" = type <{ ptr, i32, [4 x i8] }>

; Function Attrs: mustprogress nounwind uwtable
define linkonce_odr noundef nonnull align 1 dereferenceable(1) ptr @_ZNK14arrow_vendored17double_conversion6VectorIcEixEi(ptr noundef nonnull align 8 dereferenceable(12) %0, i32 noundef %1) #2 comdat align 2 {
  %3 = alloca ptr, align 8
  %4 = alloca i32, align 4
  store ptr %0, ptr %3, align 8, !tbaa !27
  store i32 %1, ptr %4, align 4, !tbaa !7
  %5 = load ptr, ptr %3, align 8
  %6 = getelementptr inbounds nuw %"class.arrow_vendored::double_conversion::Vector", ptr %5, i32 0, i32 0
  %7 = load ptr, ptr %6, align 8, !tbaa !29
  %8 = load i32, ptr %4, align 4, !tbaa !7
  %9 = sext i32 %8 to i64
  %10 = getelementptr inbounds i8, ptr %7, i64 %9
  ret ptr %10
}

; Function Attrs: mustprogress uwtable
define internal void @_ZN14arrow_vendored17double_conversionL23FillDigits32FixedLengthEjiNS0_6VectorIcEEPi(i32 noundef %0, i32 noundef %1, ptr %2, i32 %3, ptr noundef %4) #0 {
  %6 = alloca %"class.arrow_vendored::double_conversion::Vector", align 8
  %7 = alloca i32, align 4
  %8 = alloca i32, align 4
  %9 = alloca ptr, align 8
  %10 = alloca i32, align 4
  %11 = getelementptr inbounds nuw { ptr, i32 }, ptr %6, i32 0, i32 0
  store ptr %2, ptr %11, align 8
  %12 = getelementptr inbounds nuw { ptr, i32 }, ptr %6, i32 0, i32 1
  store i32 %3, ptr %12, align 8
  store i32 %0, ptr %7, align 4, !tbaa !7
  store i32 %1, ptr %8, align 4, !tbaa !7
  store ptr %4, ptr %9, align 8, !tbaa !9
  call void @llvm.lifetime.start.p0(i64 4, ptr %10) #4
  %13 = load i32, ptr %8, align 4, !tbaa !7
  %14 = sub nsw i32 %13, 1
  store i32 %14, ptr %10, align 4, !tbaa !7
  br label %15

15:                                               ; preds = %31, %5
  %16 = load i32, ptr %10, align 4, !tbaa !7
  %17 = icmp sge i32 %16, 0
  br i1 %17, label %19, label %18

18:                                               ; preds = %15
  call void @llvm.lifetime.end.p0(i64 4, ptr %10) #4
  br label %34

19:                                               ; preds = %15
  %20 = load i32, ptr %7, align 4, !tbaa !7
  %21 = urem i32 %20, 10
  %22 = add i32 48, %21
  %23 = trunc i32 %22 to i8
  %24 = load ptr, ptr %9, align 8, !tbaa !9
  %25 = load i32, ptr %24, align 4, !tbaa !7
  %26 = load i32, ptr %10, align 4, !tbaa !7
  %27 = add nsw i32 %25, %26
  %28 = call noundef nonnull align 1 dereferenceable(1) ptr @_ZNK14arrow_vendored17double_conversion6VectorIcEixEi(ptr noundef nonnull align 8 dereferenceable(12) %6, i32 noundef %27)
  store i8 %23, ptr %28, align 1, !tbaa !17
  %29 = load i32, ptr %7, align 4, !tbaa !7
  %30 = udiv i32 %29, 10
  store i32 %30, ptr %7, align 4, !tbaa !7
  br label %31

31:                                               ; preds = %19
  %32 = load i32, ptr %10, align 4, !tbaa !7
  %33 = add nsw i32 %32, -1
  store i32 %33, ptr %10, align 4, !tbaa !7
  br label %15, !llvm.loop !36

34:                                               ; preds = %18
  %35 = load i32, ptr %8, align 4, !tbaa !7
  %36 = load ptr, ptr %9, align 8, !tbaa !9
  %37 = load i32, ptr %36, align 4, !tbaa !7
  %38 = add nsw i32 %37, %35
  store i32 %38, ptr %36, align 4, !tbaa !7
  ret void
}

; Function Attrs: mustprogress uwtable
define internal void @_ZN14arrow_vendored17double_conversionL12FillDigits32EjNS0_6VectorIcEEPi(i32 noundef %0, ptr %1, i32 %2, ptr noundef %3) #0 {
  %5 = alloca %"class.arrow_vendored::double_conversion::Vector", align 8
  %6 = alloca i32, align 4
  %7 = alloca ptr, align 8
  %8 = alloca i32, align 4
  %9 = alloca i32, align 4
  %10 = alloca i32, align 4
  %11 = alloca i32, align 4
  %12 = alloca i8, align 1
  %13 = getelementptr inbounds nuw { ptr, i32 }, ptr %5, i32 0, i32 0
  store ptr %1, ptr %13, align 8
  %14 = getelementptr inbounds nuw { ptr, i32 }, ptr %5, i32 0, i32 1
  store i32 %2, ptr %14, align 8
  store i32 %0, ptr %6, align 4, !tbaa !7
  store ptr %3, ptr %7, align 8, !tbaa !9
  call void @llvm.lifetime.start.p0(i64 4, ptr %8) #4
  store i32 0, ptr %8, align 4, !tbaa !7
  br label %15

15:                                               ; preds = %18, %4
  %16 = load i32, ptr %6, align 4, !tbaa !7
  %17 = icmp ne i32 %16, 0
  br i1 %17, label %18, label %33

18:                                               ; preds = %15
  call void @llvm.lifetime.start.p0(i64 4, ptr %9) #4
  %19 = load i32, ptr %6, align 4, !tbaa !7
  %20 = urem i32 %19, 10
  store i32 %20, ptr %9, align 4, !tbaa !7
  %21 = load i32, ptr %6, align 4, !tbaa !7
  %22 = udiv i32 %21, 10
  store i32 %22, ptr %6, align 4, !tbaa !7
  %23 = load i32, ptr %9, align 4, !tbaa !7
  %24 = add nsw i32 48, %23
  %25 = trunc i32 %24 to i8
  %26 = load ptr, ptr %7, align 8, !tbaa !9
  %27 = load i32, ptr %26, align 4, !tbaa !7
  %28 = load i32, ptr %8, align 4, !tbaa !7
  %29 = add nsw i32 %27, %28
  %30 = call noundef nonnull align 1 dereferenceable(1) ptr @_ZNK14arrow_vendored17double_conversion6VectorIcEixEi(ptr noundef nonnull align 8 dereferenceable(12) %5, i32 noundef %29)
  store i8 %25, ptr %30, align 1, !tbaa !17
  %31 = load i32, ptr %8, align 4, !tbaa !7
  %32 = add nsw i32 %31, 1
  store i32 %32, ptr %8, align 4, !tbaa !7
  call void @llvm.lifetime.end.p0(i64 4, ptr %9) #4
  br label %15, !llvm.loop !22

33:                                               ; preds = %15
  call void @llvm.lifetime.start.p0(i64 4, ptr %10) #4
  %34 = load ptr, ptr %7, align 8, !tbaa !9
  %35 = load i32, ptr %34, align 4, !tbaa !7
  store i32 %35, ptr %10, align 4, !tbaa !7
  call void @llvm.lifetime.start.p0(i64 4, ptr %11) #4
  %36 = load ptr, ptr %7, align 8, !tbaa !9
  %37 = load i32, ptr %36, align 4, !tbaa !7
  %38 = load i32, ptr %8, align 4, !tbaa !7
  %39 = add nsw i32 %37, %38
  %40 = sub nsw i32 %39, 1
  store i32 %40, ptr %11, align 4, !tbaa !7
  br label %41

41:                                               ; preds = %45, %33
  %42 = load i32, ptr %10, align 4, !tbaa !7
  %43 = load i32, ptr %11, align 4, !tbaa !7
  %44 = icmp slt i32 %42, %43
  br i1 %44, label %45, label %61

45:                                               ; preds = %41
  call void @llvm.lifetime.start.p0(i64 1, ptr %12) #4
  %46 = load i32, ptr %10, align 4, !tbaa !7
  %47 = call noundef nonnull align 1 dereferenceable(1) ptr @_ZNK14arrow_vendored17double_conversion6VectorIcEixEi(ptr noundef nonnull align 8 dereferenceable(12) %5, i32 noundef %46)
  %48 = load i8, ptr %47, align 1, !tbaa !17
  store i8 %48, ptr %12, align 1, !tbaa !17
  %49 = load i32, ptr %11, align 4, !tbaa !7
  %50 = call noundef nonnull align 1 dereferenceable(1) ptr @_ZNK14arrow_vendored17double_conversion6VectorIcEixEi(ptr noundef nonnull align 8 dereferenceable(12) %5, i32 noundef %49)
  %51 = load i8, ptr %50, align 1, !tbaa !17
  %52 = load i32, ptr %10, align 4, !tbaa !7
  %53 = call noundef nonnull align 1 dereferenceable(1) ptr @_ZNK14arrow_vendored17double_conversion6VectorIcEixEi(ptr noundef nonnull align 8 dereferenceable(12) %5, i32 noundef %52)
  store i8 %51, ptr %53, align 1, !tbaa !17
  %54 = load i8, ptr %12, align 1, !tbaa !17
  %55 = load i32, ptr %11, align 4, !tbaa !7
  %56 = call noundef nonnull align 1 dereferenceable(1) ptr @_ZNK14arrow_vendored17double_conversion6VectorIcEixEi(ptr noundef nonnull align 8 dereferenceable(12) %5, i32 noundef %55)
  store i8 %54, ptr %56, align 1, !tbaa !17
  %57 = load i32, ptr %10, align 4, !tbaa !7
  %58 = add nsw i32 %57, 1
  store i32 %58, ptr %10, align 4, !tbaa !7
  %59 = load i32, ptr %11, align 4, !tbaa !7
  %60 = add nsw i32 %59, -1
  store i32 %60, ptr %11, align 4, !tbaa !7
  call void @llvm.lifetime.end.p0(i64 1, ptr %12) #4
  br label %41, !llvm.loop !24

61:                                               ; preds = %41
  %62 = load i32, ptr %8, align 4, !tbaa !7
  %63 = load ptr, ptr %7, align 8, !tbaa !9
  %64 = load i32, ptr %63, align 4, !tbaa !7
  %65 = add nsw i32 %64, %62
  store i32 %65, ptr %63, align 4, !tbaa !7
  call void @llvm.lifetime.end.p0(i64 4, ptr %11) #4
  call void @llvm.lifetime.end.p0(i64 4, ptr %10) #4
  call void @llvm.lifetime.end.p0(i64 4, ptr %8) #4
  ret void
}

; Function Attrs: mustprogress uwtable
define internal void @_ZN14arrow_vendored17double_conversionL12FillDigits64EmNS0_6VectorIcEEPi(i64 noundef %0, ptr %1, i32 %2, ptr noundef %3) #0 {
  %5 = alloca %"class.arrow_vendored::double_conversion::Vector", align 8
  %6 = alloca i64, align 8
  %7 = alloca ptr, align 8
  %8 = alloca i32, align 4
  %9 = alloca i32, align 4
  %10 = alloca i32, align 4
  %11 = alloca i32, align 4
  %12 = alloca %"class.arrow_vendored::double_conversion::Vector", align 8
  %13 = alloca %"class.arrow_vendored::double_conversion::Vector", align 8
  %14 = alloca %"class.arrow_vendored::double_conversion::Vector", align 8
  %15 = alloca %"class.arrow_vendored::double_conversion::Vector", align 8
  %16 = alloca %"class.arrow_vendored::double_conversion::Vector", align 8
  %17 = alloca %"class.arrow_vendored::double_conversion::Vector", align 8
  %18 = getelementptr inbounds nuw { ptr, i32 }, ptr %5, i32 0, i32 0
  store ptr %1, ptr %18, align 8
  %19 = getelementptr inbounds nuw { ptr, i32 }, ptr %5, i32 0, i32 1
  store i32 %2, ptr %19, align 8
  store i64 %0, ptr %6, align 8, !tbaa !12
  store ptr %3, ptr %7, align 8, !tbaa !9
  call void @llvm.lifetime.start.p0(i64 4, ptr %8) #4
  store i32 10000000, ptr %8, align 4, !tbaa !7
  call void @llvm.lifetime.start.p0(i64 4, ptr %9) #4
  %20 = load i64, ptr %6, align 8, !tbaa !12
  %21 = urem i64 %20, 10000000
  %22 = trunc i64 %21 to i32
  store i32 %22, ptr %9, align 4, !tbaa !7
  %23 = load i64, ptr %6, align 8, !tbaa !12
  %24 = udiv i64 %23, 10000000
  store i64 %24, ptr %6, align 8, !tbaa !12
  call void @llvm.lifetime.start.p0(i64 4, ptr %10) #4
  %25 = load i64, ptr %6, align 8, !tbaa !12
  %26 = urem i64 %25, 10000000
  %27 = trunc i64 %26 to i32
  store i32 %27, ptr %10, align 4, !tbaa !7
  call void @llvm.lifetime.start.p0(i64 4, ptr %11) #4
  %28 = load i64, ptr %6, align 8, !tbaa !12
  %29 = udiv i64 %28, 10000000
  %30 = trunc i64 %29 to i32
  store i32 %30, ptr %11, align 4, !tbaa !7
  %31 = load i32, ptr %11, align 4, !tbaa !7
  %32 = icmp ne i32 %31, 0
  br i1 %32, label %33, label %52

33:                                               ; preds = %4
  %34 = load i32, ptr %11, align 4, !tbaa !7
  call void @llvm.memcpy.p0.p0.i64(ptr align 8 %12, ptr align 8 %5, i64 16, i1 false), !tbaa.struct !14
  %35 = load ptr, ptr %7, align 8, !tbaa !9
  %36 = getelementptr inbounds nuw { ptr, i32 }, ptr %12, i32 0, i32 0
  %37 = load ptr, ptr %36, align 8
  %38 = getelementptr inbounds nuw { ptr, i32 }, ptr %12, i32 0, i32 1
  %39 = load i32, ptr %38, align 8
  call void @_ZN14arrow_vendored17double_conversionL12FillDigits32EjNS0_6VectorIcEEPi(i32 noundef %34, ptr %37, i32 %39, ptr noundef %35)
  %40 = load i32, ptr %10, align 4, !tbaa !7
  call void @llvm.memcpy.p0.p0.i64(ptr align 8 %13, ptr align 8 %5, i64 16, i1 false), !tbaa.struct !14
  %41 = load ptr, ptr %7, align 8, !tbaa !9
  %42 = getelementptr inbounds nuw { ptr, i32 }, ptr %13, i32 0, i32 0
  %43 = load ptr, ptr %42, align 8
  %44 = getelementptr inbounds nuw { ptr, i32 }, ptr %13, i32 0, i32 1
  %45 = load i32, ptr %44, align 8
  call void @_ZN14arrow_vendored17double_conversionL23FillDigits32FixedLengthEjiNS0_6VectorIcEEPi(i32 noundef %40, i32 noundef 7, ptr %43, i32 %45, ptr noundef %41)
  %46 = load i32, ptr %9, align 4, !tbaa !7
  call void @llvm.memcpy.p0.p0.i64(ptr align 8 %14, ptr align 8 %5, i64 16, i1 false), !tbaa.struct !14
  %47 = load ptr, ptr %7, align 8, !tbaa !9
  %48 = getelementptr inbounds nuw { ptr, i32 }, ptr %14, i32 0, i32 0
  %49 = load ptr, ptr %48, align 8
  %50 = getelementptr inbounds nuw { ptr, i32 }, ptr %14, i32 0, i32 1
  %51 = load i32, ptr %50, align 8
  call void @_ZN14arrow_vendored17double_conversionL23FillDigits32FixedLengthEjiNS0_6VectorIcEEPi(i32 noundef %46, i32 noundef 7, ptr %49, i32 %51, ptr noundef %47)
  br label %76

52:                                               ; preds = %4
  %53 = load i32, ptr %10, align 4, !tbaa !7
  %54 = icmp ne i32 %53, 0
  br i1 %54, label %55, label %68

55:                                               ; preds = %52
  %56 = load i32, ptr %10, align 4, !tbaa !7
  call void @llvm.memcpy.p0.p0.i64(ptr align 8 %15, ptr align 8 %5, i64 16, i1 false), !tbaa.struct !14
  %57 = load ptr, ptr %7, align 8, !tbaa !9
  %58 = getelementptr inbounds nuw { ptr, i32 }, ptr %15, i32 0, i32 0
  %59 = load ptr, ptr %58, align 8
  %60 = getelementptr inbounds nuw { ptr, i32 }, ptr %15, i32 0, i32 1
  %61 = load i32, ptr %60, align 8
  call void @_ZN14arrow_vendored17double_conversionL12FillDigits32EjNS0_6VectorIcEEPi(i32 noundef %56, ptr %59, i32 %61, ptr noundef %57)
  %62 = load i32, ptr %9, align 4, !tbaa !7
  call void @llvm.memcpy.p0.p0.i64(ptr align 8 %16, ptr align 8 %5, i64 16, i1 false), !tbaa.struct !14
  %63 = load ptr, ptr %7, align 8, !tbaa !9
  %64 = getelementptr inbounds nuw { ptr, i32 }, ptr %16, i32 0, i32 0
  %65 = load ptr, ptr %64, align 8
  %66 = getelementptr inbounds nuw { ptr, i32 }, ptr %16, i32 0, i32 1
  %67 = load i32, ptr %66, align 8
  call void @_ZN14arrow_vendored17double_conversionL23FillDigits32FixedLengthEjiNS0_6VectorIcEEPi(i32 noundef %62, i32 noundef 7, ptr %65, i32 %67, ptr noundef %63)
  br label %75

68:                                               ; preds = %52
  %69 = load i32, ptr %9, align 4, !tbaa !7
  call void @llvm.memcpy.p0.p0.i64(ptr align 8 %17, ptr align 8 %5, i64 16, i1 false), !tbaa.struct !14
  %70 = load ptr, ptr %7, align 8, !tbaa !9
  %71 = getelementptr inbounds nuw { ptr, i32 }, ptr %17, i32 0, i32 0
  %72 = load ptr, ptr %71, align 8
  %73 = getelementptr inbounds nuw { ptr, i32 }, ptr %17, i32 0, i32 1
  %74 = load i32, ptr %73, align 8
  call void @_ZN14arrow_vendored17double_conversionL12FillDigits32EjNS0_6VectorIcEEPi(i32 noundef %69, ptr %72, i32 %74, ptr noundef %70)
  br label %75

75:                                               ; preds = %68, %55
  br label %76

76:                                               ; preds = %75, %33
  call void @llvm.lifetime.end.p0(i64 4, ptr %11) #4
  call void @llvm.lifetime.end.p0(i64 4, ptr %10) #4
  call void @llvm.lifetime.end.p0(i64 4, ptr %9) #4
  call void @llvm.lifetime.end.p0(i64 4, ptr %8) #4
  ret void
}